target datalayout = "e-m:e-p270:32:32-p271:32:32-p272:64:64-i64:64-i128:128-f80:128-n8:16:32:64-S128"
target triple = "x86_64-pc-linux-gnu"

%struct._packet_info = type { ptr, ptr, i32, i32, %struct.nstime_t, %struct.nstime_t, %struct.nstime_t, i8, ptr, ptr, ptr, ptr, %struct._address, %struct._address, %struct._address, %struct._address, %struct._address, %struct._address, i32, ptr, i8, [3 x i8], %struct.anon, i32, i32, i32, i32, ptr, i8, ptr, ptr, i16, i16, i32, i32, i16, i32, i32, ptr, ptr, ptr, i8, i8, i16, i16, i16, i32, i16, i16, ptr, ptr, ptr, ptr, ptr, i32, i32 }
%struct.nstime_t = type { i64, i32 }
%struct._address = type { i32, i32, ptr, ptr }
%struct.anon = type { i8, [3 x i8] }
%struct.gadu_gadu_conv_data = type { i32 }
%struct._proto_node = type { ptr, ptr, ptr, ptr, ptr, ptr, ptr }
%struct.field_info = type { ptr, i32, i32, i32, i32, i32, i32, ptr, ptr, ptr, i32, i32 }

@hf_gadu_gadu_login_uin = internal global i32 0, align 4
@hf_gadu_gadu_login_hash_type = internal global i32 0, align 4
@hf_gadu_gadu_login_hash = internal global i32 0, align 4
@hf_gadu_gadu_login_status = internal global i32 0, align 4
@hf_gadu_gadu_login_protocol = internal global i32 0, align 4
@hf_gadu_gadu_login_version = internal global i32 0, align 4
@hf_gadu_gadu_login_local_ip = internal global i32 0, align 4
@hf_gadu_gadu_login_local_port = internal global i32 0, align 4
@proto_gadu_gadu = internal global i32 0, align 4
@.str.252 = private unnamed_addr constant [22 x i8] c"Login request (< 6.0)\00", align 1
@.str.253 = private unnamed_addr constant [7 x i8] c"0x%.8x\00", align 1
@.str.254 = private unnamed_addr constant [15 x i8] c"Unknown (0x%x)\00", align 1

; Function Attrs: null_pointer_is_valid sspstrong uwtable
define internal i32 @dissect_gadu_gadu_login_protocol(ptr noundef %0, ptr noundef %1, i32 noundef %2) #0 {
  %4 = alloca ptr, align 8
  %5 = alloca ptr, align 8
  %6 = alloca i32, align 4
  %7 = alloca ptr, align 8
  %8 = alloca i32, align 4
  store ptr %0, ptr %4, align 8
  store ptr %1, ptr %5, align 8
  store i32 %2, ptr %6, align 4
  call void @llvm.lifetime.start.p0(i64 8, ptr %7) #6
  call void @llvm.lifetime.start.p0(i64 4, ptr %8) #6
  %9 = load ptr, ptr %4, align 8
  %10 = load i32, ptr %6, align 4
  %11 = call i32 @tvb_get_letohl(ptr noundef %9, i32 noundef %10)
  %12 = and i32 %11, 255
  store i32 %12, ptr %8, align 4
  %13 = load ptr, ptr %5, align 8
  %14 = load i32, ptr @hf_gadu_gadu_login_protocol, align 4
  %15 = load ptr, ptr %4, align 8
  %16 = load i32, ptr %6, align 4
  %17 = call ptr @proto_tree_add_item(ptr noundef %13, i32 noundef %14, ptr noundef %15, i32 noundef %16, i32 noundef 4, i32 noundef -2147483648)
  %18 = load ptr, ptr %5, align 8
  %19 = load i32, ptr @hf_gadu_gadu_login_version, align 4
  %20 = load ptr, ptr %4, align 8
  %21 = load i32, ptr %6, align 4
  %22 = load i32, ptr %8, align 4
  %23 = call ptr @val_to_str(i32 noundef %22, ptr noundef @gadu_gadu_version_vals, ptr noundef @.str.254)
  %24 = call ptr @proto_tree_add_string(ptr noundef %18, i32 noundef %19, ptr noundef %20, i32 noundef %21, i32 noundef 4, ptr noundef %23)
  store ptr %24, ptr %7, align 8
  %25 = load ptr, ptr %7, align 8
  call void @proto_item_set_generated(ptr noundef %25)
  %26 = load i32, ptr %6, align 4
  %27 = add i32 %26, 4
  store i32 %27, ptr %6, align 4
  %28 = load i32, ptr %6, align 4
  call void @llvm.lifetime.end.p0(i64 4, ptr %8) #6
  call void @llvm.lifetime.end.p0(i64 8, ptr %7) #6
  ret i32 %28
}

; Function Attrs: null_pointer_is_valid sspstrong uwtable
define internal ptr @_tvb_memcpy_reverse(ptr noundef %0, ptr noundef %1, i32 noundef %2, i64 noundef %3) #0 {
  %5 = alloca ptr, align 8
  %6 = alloca ptr, align 8
  %7 = alloca i32, align 4
  %8 = alloca i64, align 8
  %9 = alloca ptr, align 8
  store ptr %0, ptr %5, align 8
  store ptr %1, ptr %6, align 8
  store i32 %2, ptr %7, align 4
  store i64 %3, ptr %8, align 8
  call void @llvm.lifetime.start.p0(i64 8, ptr %9) #6
  %10 = load ptr, ptr %6, align 8
  store ptr %10, ptr %9, align 8
  br label %11

11:                                               ; preds = %14, %4
  %12 = load i64, ptr %8, align 8
  %13 = icmp ugt i64 %12, 0
  br i1 %13, label %14, label %25

14:                                               ; preds = %11
  %15 = load i64, ptr %8, align 8
  %16 = add i64 %15, -1
  store i64 %16, ptr %8, align 8
  %17 = load ptr, ptr %5, align 8
  %18 = load i32, ptr %7, align 4
  %19 = call zeroext i8 @tvb_get_uint8(ptr noundef %17, i32 noundef %18)
  %20 = load ptr, ptr %9, align 8
  %21 = load i64, ptr %8, align 8
  %22 = getelementptr i8, ptr %20, i64 %21
  store i8 %19, ptr %22, align 1
  %23 = load i32, ptr %7, align 4
  %24 = add i32 %23, 1
  store i32 %24, ptr %7, align 4
  br label %11, !llvm.loop !14

25:                                               ; preds = %11
  %26 = load ptr, ptr %6, align 8
  call void @llvm.lifetime.end.p0(i64 8, ptr %9) #6
  ret ptr %26
}

; Function Attrs: inlinehint nounwind null_pointer_is_valid sspstrong uwtable
define internal void @proto_item_set_generated(ptr noundef %0) #3 {
  %2 = alloca ptr, align 8
  store ptr %0, ptr %2, align 8
  %3 = load ptr, ptr %2, align 8
  %4 = icmp ne ptr %3, null
  br i1 %4, label %5, label %24

5:                                                ; preds = %1
  br label %6

6:                                                ; preds = %5
  %7 = load ptr, ptr %2, align 8
  %8 = getelementptr inbounds nuw %struct._proto_node, ptr %7, i32 0, i32 5
  %9 = load ptr, ptr %8, align 8
  %10 = icmp ne ptr %9, null
  br i1 %10, label %11, label %22

11:                                               ; preds = %6
  %12 = load ptr, ptr %2, align 8
  %13 = getelementptr inbounds nuw %struct._proto_node, ptr %12, i32 0, i32 5
  %14 = load ptr, ptr %13, align 8
  %15 = getelementptr inbounds nuw %struct.field_info, ptr %14, i32 0, i32 6
  %16 = load i32, ptr %15, align 4
  %17 = or i32 %16, 2
  %18 = load ptr, ptr %2, align 8
  %19 = getelementptr inbounds nuw %struct._proto_node, ptr %18, i32 0, i32 5
  %20 = load ptr, ptr %19, align 8
  %21 = getelementptr inbounds nuw %struct.field_info, ptr %20, i32 0, i32 6
  store i32 %17, ptr %21, align 4
  br label %22

22:                                               ; preds = %11, %6
  br label %23

23:                                               ; preds = %22
  br label %24

24:                                               ; preds = %23, %1
  ret void
}

; Function Attrs: null_pointer_is_valid sspstrong uwtable
define internal ptr @gadu_gadu_create_conversation(ptr noundef %0, i32 noundef %1) #0 {
  %3 = alloca ptr, align 8
  %4 = alloca i32, align 4
  %5 = alloca ptr, align 8
  %6 = alloca ptr, align 8
  store ptr %0, ptr %3, align 8
  store i32 %1, ptr %4, align 4
  call void @llvm.lifetime.start.p0(i64 8, ptr %5) #6
  call void @llvm.lifetime.start.p0(i64 8, ptr %6) #6
  %7 = load ptr, ptr %3, align 8
  %8 = call ptr @find_or_create_conversation(ptr noundef %7)
  store ptr %8, ptr %5, align 8
  %9 = load ptr, ptr %5, align 8
  %10 = load i32, ptr @proto_gadu_gadu, align 4
  %11 = call ptr @conversation_get_proto_data(ptr noundef %9, i32 noundef %10)
  store ptr %11, ptr %6, align 8
  %12 = load ptr, ptr %6, align 8
  %13 = icmp ne ptr %12, null
  br i1 %13, label %23, label %14

14:                                               ; preds = %2
  %15 = call ptr @wmem_file_scope()
  %16 = call noalias ptr @wmem_alloc(ptr noundef %15, i64 noundef 4) #7
  store ptr %16, ptr %6, align 8
  %17 = load i32, ptr %4, align 4
  %18 = load ptr, ptr %6, align 8
  %19 = getelementptr inbounds nuw %struct.gadu_gadu_conv_data, ptr %18, i32 0, i32 0
  store i32 %17, ptr %19, align 4
  %20 = load ptr, ptr %5, align 8
  %21 = load i32, ptr @proto_gadu_gadu, align 4
  %22 = load ptr, ptr %6, align 8
  call void @conversation_add_proto_data(ptr noundef %20, i32 noundef %21, ptr noundef %22)
  br label %23

23:                                               ; preds = %14, %2
  %24 = load ptr, ptr %6, align 8
  call void @llvm.lifetime.end.p0(i64 8, ptr %6) #6
  call void @llvm.lifetime.end.p0(i64 8, ptr %5) #6
  ret ptr %24
}

; Function Attrs: null_pointer_is_valid sspstrong uwtable
define internal i32 @dissect_gadu_gadu_login(ptr noundef %0, ptr noundef %1, ptr noundef %2, i32 noundef %3) #0 {
  %5 = alloca ptr, align 8
  %6 = alloca ptr, align 8
  %7 = alloca ptr, align 8
  %8 = alloca i32, align 4
  %9 = alloca ptr, align 8
  %10 = alloca i32, align 4
  %11 = alloca [4 x i8], align 1
  store ptr %0, ptr %5, align 8
  store ptr %1, ptr %6, align 8
  store ptr %2, ptr %7, align 8
  store i32 %3, ptr %8, align 4
  call void @llvm.lifetime.start.p0(i64 8, ptr %9) #6
  call void @llvm.lifetime.start.p0(i64 4, ptr %10) #6
  call void @llvm.lifetime.start.p0(i64 4, ptr %11) #6
  %12 = load ptr, ptr %6, align 8
  %13 = getelementptr inbounds nuw %struct._packet_info, ptr %12, i32 0, i32 1
  %14 = load ptr, ptr %13, align 8
  call void @col_set_str(ptr noundef %14, i32 noundef 25, ptr noundef @.str.252)
  %15 = load ptr, ptr %5, align 8
  %16 = load i32, ptr %8, align 4
  %17 = call i32 @tvb_get_letohl(ptr noundef %15, i32 noundef %16)
  store i32 %17, ptr %10, align 4
  %18 = load ptr, ptr %6, align 8
  %19 = load i32, ptr %10, align 4
  %20 = call ptr @gadu_gadu_create_conversation(ptr noundef %18, i32 noundef %19)
  %21 = load ptr, ptr %7, align 8
  %22 = load i32, ptr @hf_gadu_gadu_login_uin, align 4
  %23 = load ptr, ptr %5, align 8
  %24 = load i32, ptr %8, align 4
  %25 = load i32, ptr %10, align 4
  %26 = call ptr @proto_tree_add_uint(ptr noundef %21, i32 noundef %22, ptr noundef %23, i32 noundef %24, i32 noundef 4, i32 noundef %25)
  %27 = load i32, ptr %8, align 4
  %28 = add i32 %27, 4
  store i32 %28, ptr %8, align 4
  %29 = load ptr, ptr %7, align 8
  %30 = load i32, ptr @hf_gadu_gadu_login_hash_type, align 4
  %31 = load ptr, ptr %5, align 8
  %32 = call ptr @proto_tree_add_uint(ptr noundef %29, i32 noundef %30, ptr noundef %31, i32 noundef 0, i32 noundef 0, i32 noundef 1)
  store ptr %32, ptr %9, align 8
  %33 = load ptr, ptr %9, align 8
  call void @proto_item_set_generated(ptr noundef %33)
  %34 = load ptr, ptr %5, align 8
  %35 = getelementptr inbounds [4 x i8], ptr %11, i64 0, i64 0
  %36 = load i32, ptr %8, align 4
  %37 = call ptr @_tvb_memcpy_reverse(ptr noundef %34, ptr noundef %35, i32 noundef %36, i64 noundef 4)
  %38 = load ptr, ptr %7, align 8
  %39 = load i32, ptr @hf_gadu_gadu_login_hash, align 4
  %40 = load ptr, ptr %5, align 8
  %41 = load i32, ptr %8, align 4
  %42 = getelementptr inbounds [4 x i8], ptr %11, i64 0, i64 0
  %43 = load ptr, ptr %5, align 8
  %44 = load i32, ptr %8, align 4
  %45 = call i32 @tvb_get_letohl(ptr noundef %43, i32 noundef %44)
  %46 = call ptr (ptr, i32, ptr, i32, i32, ptr, ptr, ...) @proto_tree_add_bytes_format_value(ptr noundef %38, i32 noundef %39, ptr noundef %40, i32 noundef %41, i32 noundef 4, ptr noundef %42, ptr noundef @.str.253, i32 noundef %45)
  %47 = load i32, ptr %8, align 4
  %48 = add i32 %47, 4
  store i32 %48, ptr %8, align 4
  %49 = load ptr, ptr %7, align 8
  %50 = load i32, ptr @hf_gadu_gadu_login_status, align 4
  %51 = load ptr, ptr %5, align 8
  %52 = load i32, ptr %8, align 4
  %53 = call ptr @proto_tree_add_item(ptr noundef %49, i32 noundef %50, ptr noundef %51, i32 noundef %52, i32 noundef 4, i32 noundef -2147483648)
  %54 = load i32, ptr %8, align 4
  %55 = add i32 %54, 4
  store i32 %55, ptr %8, align 4
  %56 = load ptr, ptr %5, align 8
  %57 = load ptr, ptr %7, align 8
  %58 = load i32, ptr %8, align 4
  %59 = call i32 @dissect_gadu_gadu_login_protocol(ptr noundef %56, ptr noundef %57, i32 noundef %58)
  store i32 %59, ptr %8, align 4
  %60 = load ptr, ptr %7, align 8
  %61 = load i32, ptr @hf_gadu_gadu_login_local_ip, align 4
  %62 = load ptr, ptr %5, align 8
  %63 = load i32, ptr %8, align 4
  %64 = call ptr @proto_tree_add_item(ptr noundef %60, i32 noundef %61, ptr noundef %62, i32 noundef %63, i32 noundef 4, i32 noundef 0)
  %65 = load i32, ptr %8, align 4
  %66 = add i32 %65, 4
  store i32 %66, ptr %8, align 4
  %67 = load ptr, ptr %7, align 8
  %68 = load i32, ptr @hf_gadu_gadu_login_local_port, align 4
  %69 = load ptr, ptr %5, align 8
  %70 = load i32, ptr %8, align 4
  %71 = call ptr @proto_tree_add_item(ptr noundef %67, i32 noundef %68, ptr noundef %69, i32 noundef %70, i32 noundef 2, i32 noundef -2147483648)
  %72 = load i32, ptr %8, align 4
  %73 = add i32 %72, 2
  store i32 %73, ptr %8, align 4
  %74 = load i32, ptr %8, align 4
  call void @llvm.lifetime.end.p0(i64 4, ptr %11) #6
  call void @llvm.lifetime.end.p0(i64 4, ptr %10) #6
  call void @llvm.lifetime.end.p0(i64 8, ptr %9) #6
  ret i32 %74
}