; Function Attrs: null_pointer_is_valid sspstrong uwtable
define internal fastcc noundef range(i32 30, 94) i32 @dissect_gadu_gadu_login(ptr noundef %0, ptr noundef %1, ptr noundef %2) unnamed_addr #0 {
  %4 = alloca [4 x i8], align 1
  call void @llvm.lifetime.start.p0(i64 4, ptr nonnull %4) #4
  %5 = getelementptr inbounds nuw i8, ptr %1, i64 8
  %6 = load ptr, ptr %5, align 8
  tail call void @col_set_str(ptr noundef %6, i32 noundef 25, ptr noundef nonnull @.str.252)
  %7 = tail call i32 @tvb_get_letohl(ptr noundef %0, i32 noundef 8)
  %8 = tail call ptr @find_or_create_conversation(ptr noundef %1)
  %9 = load i32, ptr @proto_gadu_gadu, align 4
  %10 = tail call ptr @conversation_get_proto_data(ptr noundef %8, i32 noundef %9)
  %.not.i = icmp eq ptr %10, null
  br i1 %.not.i, label %11, label %gadu_gadu_create_conversation.exit

11:                                               ; preds = %3
  %12 = tail call ptr @wmem_file_scope()
  %13 = tail call noalias dereferenceable_or_null(4) ptr @wmem_alloc(ptr noundef %12, i64 noundef 4) #5
  store i32 %7, ptr %13, align 4
  %14 = load i32, ptr @proto_gadu_gadu, align 4
  tail call void @conversation_add_proto_data(ptr noundef %8, i32 noundef %14, ptr noundef %13)
  br label %gadu_gadu_create_conversation.exit

gadu_gadu_create_conversation.exit:               ; preds = %3, %11
  %15 = load i32, ptr @hf_gadu_gadu_login_uin, align 4
  %16 = tail call ptr @proto_tree_add_uint(ptr noundef %2, i32 noundef %15, ptr noundef %0, i32 noundef 8, i32 noundef 4, i32 noundef %7)
  %17 = load i32, ptr @hf_gadu_gadu_login_hash_type, align 4
  %18 = tail call ptr @proto_tree_add_uint(ptr noundef %2, i32 noundef %17, ptr noundef %0, i32 noundef 0, i32 noundef 0, i32 noundef 1)
  %.not.i36 = icmp eq ptr %18, null
  br i1 %.not.i36, label %proto_item_set_generated.exit.preheader, label %19

19:                                               ; preds = %gadu_gadu_create_conversation.exit
  %20 = getelementptr inbounds nuw i8, ptr %18, i64 40
  %21 = load ptr, ptr %20, align 8
  %.not5.i = icmp eq ptr %21, null
  br i1 %.not5.i, label %proto_item_set_generated.exit.preheader, label %22

22:                                               ; preds = %19
  %23 = getelementptr inbounds nuw i8, ptr %21, i64 28
  %24 = load i32, ptr %23, align 4
  %25 = or i32 %24, 2
  store i32 %25, ptr %23, align 4
  br label %proto_item_set_generated.exit.preheader

proto_item_set_generated.exit.preheader:          ; preds = %gadu_gadu_create_conversation.exit, %19, %22
  br label %proto_item_set_generated.exit

proto_item_set_generated.exit:                    ; preds = %proto_item_set_generated.exit.preheader, %proto_item_set_generated.exit
  %.010.i = phi i32 [ %29, %proto_item_set_generated.exit ], [ 12, %proto_item_set_generated.exit.preheader ]
  %.089.i = phi i64 [ %26, %proto_item_set_generated.exit ], [ 4, %proto_item_set_generated.exit.preheader ]
  %26 = add nsw i64 %.089.i, -1
  %27 = tail call zeroext i8 @tvb_get_uint8(ptr noundef %0, i32 noundef %.010.i)
  %28 = getelementptr i8, ptr %4, i64 %26
  store i8 %27, ptr %28, align 1
  %29 = add nuw nsw i32 %.010.i, 1
  %.not.i37 = icmp eq i64 %26, 0
  br i1 %.not.i37, label %_tvb_memcpy_reverse.exit, label %proto_item_set_generated.exit, !llvm.loop !13

_tvb_memcpy_reverse.exit:                         ; preds = %proto_item_set_generated.exit
  %30 = load i32, ptr @hf_gadu_gadu_login_hash, align 4
  %31 = tail call i32 @tvb_get_letohl(ptr noundef %0, i32 noundef 12)
  %32 = call ptr (ptr, i32, ptr, i32, i32, ptr, ptr, ...) @proto_tree_add_bytes_format_value(ptr noundef %2, i32 noundef %30, ptr noundef %0, i32 noundef 12, i32 noundef 4, ptr noundef nonnull %4, ptr noundef nonnull @.str.253, i32 noundef %31)
  %33 = load i32, ptr @hf_gadu_gadu_login_status, align 4
  %34 = call ptr @proto_tree_add_item(ptr noundef %2, i32 noundef %33, ptr noundef %0, i32 noundef 16, i32 noundef 4, i32 noundef -2147483648)
  %35 = call i32 @tvb_get_letohl(ptr noundef %0, i32 noundef 20)
  %36 = and i32 %35, 255
  %37 = load i32, ptr @hf_gadu_gadu_login_protocol, align 4
  %38 = call ptr @proto_tree_add_item(ptr noundef %2, i32 noundef %37, ptr noundef %0, i32 noundef 20, i32 noundef 4, i32 noundef -2147483648)
  %39 = load i32, ptr @hf_gadu_gadu_login_version, align 4
  %40 = call ptr @val_to_str(i32 noundef %36, ptr noundef nonnull @gadu_gadu_version_vals, ptr noundef nonnull @.str.254)
  %41 = call ptr @proto_tree_add_string(ptr noundef %2, i32 noundef %39, ptr noundef %0, i32 noundef 20, i32 noundef 4, ptr noundef %40)
  %.not.i.i = icmp eq ptr %41, null
  br i1 %.not.i.i, label %dissect_gadu_gadu_login_protocol.exit, label %42

42:                                               ; preds = %_tvb_memcpy_reverse.exit
  %43 = getelementptr inbounds nuw i8, ptr %41, i64 40
  %44 = load ptr, ptr %43, align 8
  %.not5.i.i = icmp eq ptr %44, null
  br i1 %.not5.i.i, label %dissect_gadu_gadu_login_protocol.exit, label %45

45:                                               ; preds = %42
  %46 = getelementptr inbounds nuw i8, ptr %44, i64 28
  %47 = load i32, ptr %46, align 4
  %48 = or i32 %47, 2
  store i32 %48, ptr %46, align 4
  br label %dissect_gadu_gadu_login_protocol.exit

dissect_gadu_gadu_login_protocol.exit:            ; preds = %_tvb_memcpy_reverse.exit, %42, %45
  %49 = load i32, ptr @hf_gadu_gadu_login_local_ip, align 4
  %50 = call ptr @proto_tree_add_item(ptr noundef %2, i32 noundef %49, ptr noundef %0, i32 noundef 24, i32 noundef 4, i32 noundef 0)
  %51 = load i32, ptr @hf_gadu_gadu_login_local_port, align 4
  %52 = call ptr @proto_tree_add_item(ptr noundef %2, i32 noundef %51, ptr noundef %0, i32 noundef 28, i32 noundef 2, i32 noundef -2147483648)
  call void @llvm.lifetime.end.p0(i64 4, ptr nonnull %4) #4
  ret i32 30
}